target datalayout = "e-m:e-p270:32:32-p271:32:32-p272:64:64-i64:64-i128:128-f80:128-n8:16:32:64-S128"
target triple = "x86_64-pc-linux-gnu"

%struct.strbuf_t = type { ptr, i64, i64, i32, i32, i32 }

; Function Attrs: inlinehint nounwind uwtable
define internal i64 @strbuf_empty_length(ptr noundef %0) #4 {
  %2 = alloca ptr, align 8
  store ptr %0, ptr %2, align 8, !tbaa !15
  %3 = load ptr, ptr %2, align 8, !tbaa !15
  %4 = getelementptr inbounds nuw %struct.strbuf_t, ptr %3, i32 0, i32 1
  %5 = load i64, ptr %4, align 8, !tbaa !58
  %6 = load ptr, ptr %2, align 8, !tbaa !15
  %7 = getelementptr inbounds nuw %struct.strbuf_t, ptr %6, i32 0, i32 2
  %8 = load i64, ptr %7, align 8, !tbaa !48
  %9 = sub i64 %5, %8
  %10 = sub i64 %9, 1
  ret i64 %10
}

; Function Attrs: inlinehint nounwind uwtable
define internal void @strbuf_ensure_empty_length(ptr noundef %0, i64 noundef %1) #4 {
  %3 = alloca ptr, align 8
  %4 = alloca i64, align 8
  store ptr %0, ptr %3, align 8, !tbaa !15
  store i64 %1, ptr %4, align 8, !tbaa !20
  %5 = load i64, ptr %4, align 8, !tbaa !20
  %6 = load ptr, ptr %3, align 8, !tbaa !15
  %7 = call i64 @strbuf_empty_length(ptr noundef %6)
  %8 = icmp ugt i64 %5, %7
  br i1 %8, label %9, label %16

9:                                                ; preds = %2
  %10 = load ptr, ptr %3, align 8, !tbaa !15
  %11 = load ptr, ptr %3, align 8, !tbaa !15
  %12 = getelementptr inbounds nuw %struct.strbuf_t, ptr %11, i32 0, i32 2
  %13 = load i64, ptr %12, align 8, !tbaa !48
  %14 = load i64, ptr %4, align 8, !tbaa !20
  %15 = add i64 %13, %14
  call void @strbuf_resize(ptr noundef %10, i64 noundef %15)
  br label %16

16:                                               ; preds = %9, %2
  ret void
}

; Function Attrs: inlinehint nounwind uwtable
define internal void @strbuf_append_mem(ptr noundef %0, ptr noundef %1, i64 noundef %2) #4 {
  %4 = alloca ptr, align 8
  %5 = alloca ptr, align 8
  %6 = alloca i64, align 8
  store ptr %0, ptr %4, align 8, !tbaa !15
  store ptr %1, ptr %5, align 8, !tbaa !11
  store i64 %2, ptr %6, align 8, !tbaa !20
  %7 = load ptr, ptr %4, align 8, !tbaa !15
  %8 = load i64, ptr %6, align 8, !tbaa !20
  call void @strbuf_ensure_empty_length(ptr noundef %7, i64 noundef %8)
  %9 = load ptr, ptr %4, align 8, !tbaa !15
  %10 = getelementptr inbounds nuw %struct.strbuf_t, ptr %9, i32 0, i32 0
  %11 = load ptr, ptr %10, align 8, !tbaa !51
  %12 = load ptr, ptr %4, align 8, !tbaa !15
  %13 = getelementptr inbounds nuw %struct.strbuf_t, ptr %12, i32 0, i32 2
  %14 = load i64, ptr %13, align 8, !tbaa !48
  %15 = getelementptr inbounds nuw i8, ptr %11, i64 %14
  %16 = load ptr, ptr %5, align 8, !tbaa !11
  %17 = load i64, ptr %6, align 8, !tbaa !20
  call void @llvm.memcpy.p0.p0.i64(ptr align 1 %15, ptr align 1 %16, i64 %17, i1 false)
  %18 = load i64, ptr %6, align 8, !tbaa !20
  %19 = load ptr, ptr %4, align 8, !tbaa !15
  %20 = getelementptr inbounds nuw %struct.strbuf_t, ptr %19, i32 0, i32 2
  %21 = load i64, ptr %20, align 8, !tbaa !48
  %22 = add i64 %21, %18
  store i64 %22, ptr %20, align 8, !tbaa !48
  ret void
}