; Function Attrs: inlinehint nounwind uwtable
define internal fastcc void @strbuf_append_mem(ptr noundef %0, ptr noundef readonly captures(none) %1, i64 noundef range(i64 2, 6) %2) unnamed_addr #4 {
  %4 = getelementptr i8, ptr %0, i64 8
  %.val.i = load i64, ptr %4, align 8, !tbaa !44
  %5 = getelementptr i8, ptr %0, i64 16
  %.val4.i = load i64, ptr %5, align 8, !tbaa !32
  %6 = xor i64 %.val4.i, -1
  %7 = add i64 %.val.i, %6
  %8 = icmp ugt i64 %2, %7
  br i1 %8, label %9, label %strbuf_ensure_empty_length.exit

9:                                                ; preds = %3
  %10 = add i64 %.val4.i, %2
  tail call void @strbuf_resize(ptr noundef nonnull %0, i64 noundef %10) #12
  %.pre = load i64, ptr %5, align 8, !tbaa !32
  br label %strbuf_ensure_empty_length.exit

strbuf_ensure_empty_length.exit:                  ; preds = %3, %9
  %11 = phi i64 [ %.val4.i, %3 ], [ %.pre, %9 ]
  %12 = load ptr, ptr %0, align 8, !tbaa !33
  %13 = getelementptr inbounds nuw i8, ptr %12, i64 %11
  tail call void @llvm.memcpy.p0.p0.i64(ptr noundef nonnull align 1 dereferenceable(1) %13, ptr noundef nonnull align 1 dereferenceable(1) %1, i64 %2, i1 false)
  %14 = load i64, ptr %5, align 8, !tbaa !32
  %15 = add i64 %14, %2
  store i64 %15, ptr %5, align 8, !tbaa !32
  ret void
}